target datalayout = "e-m:e-p270:32:32-p271:32:32-p272:64:64-i64:64-i128:128-f80:128-n8:16:32:64-S128"
target triple = "x86_64-pc-linux-gnu"

%"class.sls::bv_lookahead" = type { %class.bv_util, ptr, ptr, ptr, %"struct.sls::bv_lookahead::config", %"struct.sls::bv_lookahead::stats", %"class.sls::bvect", %"class.sls::bvect", %class.ptr_vector, %class.svector.1, %class.vector.3, %class.obj_mark, double, double, %"class.sls::bvect", ptr, ptr, %class.ptr_vector, %class.vector.4, %class.obj_mark, i32, %class.tracked_uint_set, i32, i32 }
%class.bv_util = type { %class.bv_recognizers, ptr, ptr }
%class.bv_recognizers = type { i32 }
%"struct.sls::bv_lookahead::config" = type <{ i8, [7 x i8], double, i32, i32, i8, i8, i8, i8, i32, i32, i32, i32, i8, [3 x i8], i32, i32, i32, i8, [3 x i8], double, double, i8, [7 x i8], double, i8, i8, i8, [5 x i8] }>
%"struct.sls::bv_lookahead::stats" = type { i32, i32, i32, i32, i32, i32 }
%class.svector.1 = type { %class.vector.2 }
%class.vector.2 = type { ptr }
%class.vector.3 = type { ptr }
%"class.sls::bvect" = type <{ %class.svector, i32, i32, i32, [4 x i8] }>
%class.svector = type { %class.vector }
%class.vector = type { ptr }
%class.ptr_vector = type { %class.vector.0 }
%class.vector.0 = type { ptr }
%class.vector.4 = type { ptr }
%class.obj_mark = type { [8 x i8], %class.bit_vector }
%class.bit_vector = type { i32, i32, ptr }
%class.tracked_uint_set = type { %class.svector.5, %class.svector }
%class.svector.5 = type { %class.vector.6 }
%class.vector.6 = type { ptr }

; Function Attrs: inlinehint mustprogress nounwind uwtable
define linkonce_odr noundef nonnull align 4 dereferenceable(4) ptr @_ZSt3maxIjERKT_S2_S2_(ptr noundef nonnull align 4 dereferenceable(4) %0, ptr noundef nonnull align 4 dereferenceable(4) %1) #5 comdat {
  %3 = alloca ptr, align 8
  %4 = alloca ptr, align 8
  %5 = alloca ptr, align 8
  store ptr %0, ptr %4, align 8, !tbaa !249
  store ptr %1, ptr %5, align 8, !tbaa !249
  %6 = load ptr, ptr %4, align 8, !tbaa !249
  %7 = load i32, ptr %6, align 4, !tbaa !185
  %8 = load ptr, ptr %5, align 8, !tbaa !249
  %9 = load i32, ptr %8, align 4, !tbaa !185
  %10 = icmp ult i32 %7, %9
  br i1 %10, label %11, label %13

11:                                               ; preds = %2
  %12 = load ptr, ptr %5, align 8, !tbaa !249
  store ptr %12, ptr %3, align 8
  br label %15

13:                                               ; preds = %2
  %14 = load ptr, ptr %4, align 8, !tbaa !249
  store ptr %14, ptr %3, align 8
  br label %15

15:                                               ; preds = %13, %11
  %16 = load ptr, ptr %3, align 8
  ret ptr %16
}

; Function Attrs: mustprogress uwtable
define hidden void @_ZN3sls12bv_lookahead13check_restartEv(ptr noundef nonnull align 8 dereferenceable(400) %0) #4 align 2 {
  %2 = alloca ptr, align 8
  store ptr %0, ptr %2, align 8, !tbaa !3
  %3 = load ptr, ptr %2, align 8
  %4 = getelementptr inbounds nuw %"class.sls::bv_lookahead", ptr %3, i32 0, i32 5
  %5 = getelementptr inbounds nuw %"struct.sls::bv_lookahead::stats", ptr %4, i32 0, i32 1
  %6 = load i32, ptr %5, align 4, !tbaa !142
  %7 = getelementptr inbounds nuw %"class.sls::bv_lookahead", ptr %3, i32 0, i32 4
  %8 = getelementptr inbounds nuw %"struct.sls::bv_lookahead::config", ptr %7, i32 0, i32 10
  %9 = load i32, ptr %8, align 8, !tbaa !155
  %10 = urem i32 %6, %9
  %11 = icmp eq i32 %10, 0
  br i1 %11, label %12, label %13

12:                                               ; preds = %1
  call void @_ZN3sls12bv_lookahead10ucb_forgetEv(ptr noundef nonnull align 8 dereferenceable(400) %3)
  call void @_ZN3sls12bv_lookahead7rescoreEv(ptr noundef nonnull align 8 dereferenceable(400) %3)
  br label %13

13:                                               ; preds = %12, %1
  %14 = getelementptr inbounds nuw %"class.sls::bv_lookahead", ptr %3, i32 0, i32 5
  %15 = getelementptr inbounds nuw %"struct.sls::bv_lookahead::stats", ptr %14, i32 0, i32 1
  %16 = load i32, ptr %15, align 4, !tbaa !142
  %17 = getelementptr inbounds nuw %"class.sls::bv_lookahead", ptr %3, i32 0, i32 4
  %18 = getelementptr inbounds nuw %"struct.sls::bv_lookahead::config", ptr %17, i32 0, i32 11
  %19 = load i32, ptr %18, align 4, !tbaa !156
  %20 = icmp ult i32 %16, %19
  br i1 %20, label %21, label %22

21:                                               ; preds = %13
  br label %63

22:                                               ; preds = %13
  %23 = getelementptr inbounds nuw %"class.sls::bv_lookahead", ptr %3, i32 0, i32 5
  %24 = getelementptr inbounds nuw %"struct.sls::bv_lookahead::stats", ptr %23, i32 0, i32 2
  %25 = load i32, ptr %24, align 8, !tbaa !211
  %26 = add i32 %25, 1
  store i32 %26, ptr %24, align 8, !tbaa !211
  %27 = getelementptr inbounds nuw %"class.sls::bv_lookahead", ptr %3, i32 0, i32 4
  %28 = getelementptr inbounds nuw %"struct.sls::bv_lookahead::config", ptr %27, i32 0, i32 11
  %29 = getelementptr inbounds nuw %"class.sls::bv_lookahead", ptr %3, i32 0, i32 5
  %30 = getelementptr inbounds nuw %"struct.sls::bv_lookahead::stats", ptr %29, i32 0, i32 1
  %31 = call noundef nonnull align 4 dereferenceable(4) ptr @_ZSt3maxIjERKT_S2_S2_(ptr noundef nonnull align 4 dereferenceable(4) %28, ptr noundef nonnull align 4 dereferenceable(4) %30)
  %32 = load i32, ptr %31, align 4, !tbaa !185
  %33 = getelementptr inbounds nuw %"class.sls::bv_lookahead", ptr %3, i32 0, i32 4
  %34 = getelementptr inbounds nuw %"struct.sls::bv_lookahead::config", ptr %33, i32 0, i32 11
  store i32 %32, ptr %34, align 4, !tbaa !156
  %35 = getelementptr inbounds nuw %"class.sls::bv_lookahead", ptr %3, i32 0, i32 5
  %36 = getelementptr inbounds nuw %"struct.sls::bv_lookahead::stats", ptr %35, i32 0, i32 2
  %37 = load i32, ptr %36, align 8, !tbaa !211
  %38 = and i32 %37, 1
  %39 = icmp eq i32 1, %38
  br i1 %39, label %40, label %48

40:                                               ; preds = %22
  %41 = getelementptr inbounds nuw %"class.sls::bv_lookahead", ptr %3, i32 0, i32 4
  %42 = getelementptr inbounds nuw %"struct.sls::bv_lookahead::config", ptr %41, i32 0, i32 10
  %43 = load i32, ptr %42, align 8, !tbaa !155
  %44 = getelementptr inbounds nuw %"class.sls::bv_lookahead", ptr %3, i32 0, i32 4
  %45 = getelementptr inbounds nuw %"struct.sls::bv_lookahead::config", ptr %44, i32 0, i32 11
  %46 = load i32, ptr %45, align 4, !tbaa !156
  %47 = add i32 %46, %43
  store i32 %47, ptr %45, align 4, !tbaa !156
  br label %62

48:                                               ; preds = %22
  %49 = getelementptr inbounds nuw %"class.sls::bv_lookahead", ptr %3, i32 0, i32 5
  %50 = getelementptr inbounds nuw %"struct.sls::bv_lookahead::stats", ptr %49, i32 0, i32 2
  %51 = load i32, ptr %50, align 8, !tbaa !211
  %52 = lshr i32 %51, 1
  %53 = mul i32 2, %52
  %54 = getelementptr inbounds nuw %"class.sls::bv_lookahead", ptr %3, i32 0, i32 4
  %55 = getelementptr inbounds nuw %"struct.sls::bv_lookahead::config", ptr %54, i32 0, i32 10
  %56 = load i32, ptr %55, align 8, !tbaa !155
  %57 = mul i32 %53, %56
  %58 = getelementptr inbounds nuw %"class.sls::bv_lookahead", ptr %3, i32 0, i32 4
  %59 = getelementptr inbounds nuw %"struct.sls::bv_lookahead::config", ptr %58, i32 0, i32 11
  %60 = load i32, ptr %59, align 4, !tbaa !156
  %61 = add i32 %60, %57
  store i32 %61, ptr %59, align 4, !tbaa !156
  br label %62

62:                                               ; preds = %48, %40
  call void @_ZN3sls12bv_lookahead32reset_uninterp_in_false_literalsEv(ptr noundef nonnull align 8 dereferenceable(400) %3)
  call void @_ZN3sls12bv_lookahead7rescoreEv(ptr noundef nonnull align 8 dereferenceable(400) %3)
  br label %63

63:                                               ; preds = %62, %21
  ret void
}