; Function Attrs: mustprogress uwtable
define hidden void @_ZN3sls12bv_lookahead13check_restartEv(ptr noundef nonnull align 8 dereferenceable(400) %0) local_unnamed_addr #3 align 2 {
  %2 = getelementptr inbounds nuw i8, ptr %0, i64 156
  %3 = load i32, ptr %2, align 4, !tbaa !98
  %4 = getelementptr inbounds nuw i8, ptr %0, i64 80
  %5 = load i32, ptr %4, align 8, !tbaa !129
  %6 = urem i32 %3, %5
  %7 = icmp eq i32 %6, 0
  br i1 %7, label %8, label %9

8:                                                ; preds = %1
  tail call void @_ZN3sls12bv_lookahead10ucb_forgetEv(ptr noundef nonnull align 8 dereferenceable(400) %0)
  tail call void @_ZN3sls12bv_lookahead7rescoreEv(ptr noundef nonnull align 8 dereferenceable(400) %0)
  %.pre = load i32, ptr %2, align 4, !tbaa !98
  br label %9

9:                                                ; preds = %8, %1
  %.val = phi i32 [ %.pre, %8 ], [ %3, %1 ]
  %10 = getelementptr inbounds nuw i8, ptr %0, i64 84
  %11 = load i32, ptr %10, align 4, !tbaa !130
  %12 = icmp ult i32 %.val, %11
  br i1 %12, label %20, label %13

13:                                               ; preds = %9
  %14 = getelementptr inbounds nuw i8, ptr %0, i64 160
  %15 = load i32, ptr %14, align 8, !tbaa !131
  %16 = add i32 %15, 1
  store i32 %16, ptr %14, align 8, !tbaa !131
  %17 = and i32 %15, 1
  %.not.not = icmp eq i32 %17, 0
  %18 = load i32, ptr %4, align 8
  %19 = select i1 %.not.not, i32 1, i32 %16
  %.pn = mul i32 %18, %19
  %storemerge = add i32 %.pn, %.val
  store i32 %storemerge, ptr %10, align 4, !tbaa !130
  tail call void @_ZN3sls12bv_lookahead32reset_uninterp_in_false_literalsEv(ptr noundef nonnull align 8 dereferenceable(400) %0)
  tail call void @_ZN3sls12bv_lookahead7rescoreEv(ptr noundef nonnull align 8 dereferenceable(400) %0)
  br label %20

20:                                               ; preds = %9, %13
  ret void
}